target datalayout = "e-m:e-p270:32:32-p271:32:32-p272:64:64-i64:64-i128:128-f80:128-n8:16:32:64-S128"
target triple = "x86_64-pc-linux-gnu"

%class.macro_util = type { ptr, %class.bv_util, %class.arith_util, %class.arith_rewriter, %class.bv_rewriter, ptr, ptr }
%class.bv_util = type { %class.bv_recognizers, ptr, ptr }
%class.bv_recognizers = type { i32 }
%class.arith_util = type { ptr, ptr }
%class.arith_rewriter = type { %class.poly_rewriter.base, i8, i8, i8, i8, i8, i8, i8, i8, i32 }
%class.poly_rewriter.base = type <{ %class.arith_rewriter_core.base, [5 x i8], ptr, %class.obj_map, i8, i8, [2 x i8], i32, i8, i8, i8, i8 }>
%class.arith_rewriter_core.base = type <{ ptr, %class.arith_util, %class.scoped_ptr, i8, i8, i8 }>
%class.scoped_ptr = type { ptr }
%class.obj_map = type { %class.core_hashtable }
%class.core_hashtable = type <{ ptr, i32, i32, i32, [4 x i8] }>
%class.bv_rewriter = type <{ %class.poly_rewriter.base.1, [4 x i8], %class.mk_extract_proc, %class.arith_util, i8, i8, i8, i8, i8, i8, i8, i8, i8, i8, i8, i8, i8, [3 x i8] }>
%class.poly_rewriter.base.1 = type <{ %class.bv_rewriter_core, ptr, %class.obj_map, i8, i8, [2 x i8], i32, i8, i8, i8, i8 }>
%class.bv_rewriter_core = type { ptr, %class.bv_util, %class.obj_ref }
%class.obj_ref = type { ptr, ptr }
%class.mk_extract_proc = type { ptr, i32, i32, ptr, ptr }
%class.app = type { %class.expr, ptr, i32, %struct.app_flags, [0 x ptr] }
%class.expr = type { %class.ast }
%class.ast = type { i32, i32, i32, i32 }
%struct.app_flags = type <{ i16, i8, i8 }>
%class.buffer.34 = type { ptr, i32, i32, [128 x i8] }
%class.symbol = type { ptr }
%class.decl = type { %class.ast, %class.symbol, ptr }
%class.decl_info = type <{ i32, i32, %class.vector.64, i8, [7 x i8] }>
%class.vector.64 = type { ptr }

; Function Attrs: mustprogress nounwind uwtable
define linkonce_odr hidden noundef zeroext i1 @_ZNK9decl_info10is_decl_ofEii(ptr noundef nonnull align 8 dereferenceable(17) %0, i32 noundef %1, i32 noundef %2) #7 comdat align 2 {
  %4 = alloca ptr, align 8
  %5 = alloca i32, align 4
  %6 = alloca i32, align 4
  store ptr %0, ptr %4, align 8, !tbaa !371
  store i32 %1, ptr %5, align 4, !tbaa !67
  store i32 %2, ptr %6, align 4, !tbaa !67
  %7 = load ptr, ptr %4, align 8
  %8 = getelementptr inbounds nuw %class.decl_info, ptr %7, i32 0, i32 0
  %9 = load i32, ptr %8, align 8, !tbaa !372
  %10 = load i32, ptr %5, align 4, !tbaa !67
  %11 = icmp eq i32 %9, %10
  br i1 %11, label %12, label %17

12:                                               ; preds = %3
  %13 = load i32, ptr %6, align 4, !tbaa !67
  %14 = getelementptr inbounds nuw %class.decl_info, ptr %7, i32 0, i32 1
  %15 = load i32, ptr %14, align 4, !tbaa !376
  %16 = icmp eq i32 %13, %15
  br label %17

17:                                               ; preds = %12, %3
  %18 = phi i1 [ false, %3 ], [ %16, %12 ]
  ret i1 %18
}

; Function Attrs: mustprogress uwtable
define linkonce_odr hidden noundef zeroext i1 @_ZNK4decl10is_decl_ofEii(ptr noundef nonnull align 8 dereferenceable(32) %0, i32 noundef %1, i32 noundef %2) #4 comdat align 2 {
  %4 = alloca ptr, align 8
  %5 = alloca i32, align 4
  %6 = alloca i32, align 4
  store ptr %0, ptr %4, align 8, !tbaa !366
  store i32 %1, ptr %5, align 4, !tbaa !67
  store i32 %2, ptr %6, align 4, !tbaa !67
  %7 = load ptr, ptr %4, align 8
  %8 = getelementptr inbounds nuw %class.decl, ptr %7, i32 0, i32 2
  %9 = load ptr, ptr %8, align 8, !tbaa !368
  %10 = icmp ne ptr %9, null
  br i1 %10, label %11, label %17

11:                                               ; preds = %3
  %12 = getelementptr inbounds nuw %class.decl, ptr %7, i32 0, i32 2
  %13 = load ptr, ptr %12, align 8, !tbaa !368
  %14 = load i32, ptr %5, align 4, !tbaa !67
  %15 = load i32, ptr %6, align 4, !tbaa !67
  %16 = call noundef zeroext i1 @_ZNK9decl_info10is_decl_ofEii(ptr noundef nonnull align 8 dereferenceable(17) %13, i32 noundef %14, i32 noundef %15)
  br label %17

17:                                               ; preds = %11, %3
  %18 = phi i1 [ false, %3 ], [ %16, %11 ]
  ret i1 %18
}

; Function Attrs: mustprogress uwtable
define linkonce_odr hidden void @_Z13dealloc_svectIP4exprEvPT_(ptr noundef %0) #4 comdat {
  %2 = alloca ptr, align 8
  store ptr %0, ptr %2, align 8, !tbaa !56
  %3 = load ptr, ptr %2, align 8, !tbaa !56
  %4 = icmp eq ptr %3, null
  br i1 %4, label %5, label %6

5:                                                ; preds = %1
  br label %8

6:                                                ; preds = %1
  %7 = load ptr, ptr %2, align 8, !tbaa !56
  call void @_ZN6memory10deallocateEPv(ptr noundef %7)
  br label %8

8:                                                ; preds = %6, %5
  ret void
}

; Function Attrs: mustprogress uwtable
define linkonce_odr hidden noundef zeroext i1 @_ZNK3app9is_app_ofEii(ptr noundef nonnull align 8 dereferenceable(32) %0, i32 noundef %1, i32 noundef %2) #4 comdat align 2 {
  %4 = alloca ptr, align 8
  %5 = alloca i32, align 4
  %6 = alloca i32, align 4
  store ptr %0, ptr %4, align 8, !tbaa !84
  store i32 %1, ptr %5, align 4, !tbaa !67
  store i32 %2, ptr %6, align 4, !tbaa !67
  %7 = load ptr, ptr %4, align 8
  %8 = getelementptr inbounds nuw %class.app, ptr %7, i32 0, i32 1
  %9 = load ptr, ptr %8, align 8, !tbaa !86
  %10 = load i32, ptr %5, align 4, !tbaa !67
  %11 = load i32, ptr %6, align 4, !tbaa !67
  %12 = call noundef zeroext i1 @_ZNK4decl10is_decl_ofEii(ptr noundef nonnull align 8 dereferenceable(32) %9, i32 noundef %10, i32 noundef %11)
  ret i1 %12
}

; Function Attrs: inlinehint mustprogress nounwind uwtable
define linkonce_odr hidden noundef ptr @_Z6to_appPK3ast(ptr noundef %0) #8 comdat {
  %2 = alloca ptr, align 8
  store ptr %0, ptr %2, align 8, !tbaa !82
  %3 = load ptr, ptr %2, align 8, !tbaa !82
  ret ptr %3
}

; Function Attrs: mustprogress nounwind uwtable
define linkonce_odr hidden noundef i32 @_ZNK3ast8get_kindEv(ptr noundef nonnull align 4 dereferenceable(16) %0) #7 comdat align 2 {
  %2 = alloca ptr, align 8
  store ptr %0, ptr %2, align 8, !tbaa !82
  %3 = load ptr, ptr %2, align 8
  %4 = getelementptr inbounds nuw %class.ast, ptr %3, i32 0, i32 1
  %5 = load i32, ptr %4, align 4
  %6 = and i32 %5, 65535
  ret i32 %6
}

; Function Attrs: mustprogress uwtable
define linkonce_odr hidden void @_ZN6bufferIP4exprLb0ELj16EE11free_memoryEv(ptr noundef nonnull align 8 dereferenceable(144) %0) #4 comdat align 2 {
  %2 = alloca ptr, align 8
  store ptr %0, ptr %2, align 8, !tbaa !120
  %3 = load ptr, ptr %2, align 8
  %4 = getelementptr inbounds nuw %class.buffer.34, ptr %3, i32 0, i32 0
  %5 = load ptr, ptr %4, align 8, !tbaa !125
  %6 = getelementptr inbounds nuw %class.buffer.34, ptr %3, i32 0, i32 3
  %7 = getelementptr inbounds [128 x i8], ptr %6, i64 0, i64 0
  %8 = icmp ne ptr %5, %7
  br i1 %8, label %9, label %12

9:                                                ; preds = %1
  %10 = getelementptr inbounds nuw %class.buffer.34, ptr %3, i32 0, i32 0
  %11 = load ptr, ptr %10, align 8, !tbaa !125
  call void @_Z13dealloc_svectIP4exprEvPT_(ptr noundef %11)
  br label %12

12:                                               ; preds = %9, %1
  ret void
}

; Function Attrs: mustprogress nounwind uwtable
define linkonce_odr hidden noundef i32 @_ZNK14bv_recognizers7get_fidEv(ptr noundef nonnull align 4 dereferenceable(4) %0) #7 comdat align 2 {
  %2 = alloca ptr, align 8
  store ptr %0, ptr %2, align 8, !tbaa !51
  %3 = load ptr, ptr %2, align 8
  %4 = getelementptr inbounds nuw %class.bv_recognizers, ptr %3, i32 0, i32 0
  %5 = load i32, ptr %4, align 4, !tbaa !377
  ret i32 %5
}

; Function Attrs: inlinehint mustprogress uwtable
define linkonce_odr hidden noundef zeroext i1 @_Z9is_app_ofPK4exprii(ptr noundef %0, i32 noundef %1, i32 noundef %2) #9 comdat {
  %4 = alloca ptr, align 8
  %5 = alloca i32, align 4
  %6 = alloca i32, align 4
  store ptr %0, ptr %4, align 8, !tbaa !50
  store i32 %1, ptr %5, align 4, !tbaa !67
  store i32 %2, ptr %6, align 4, !tbaa !67
  %7 = load ptr, ptr %4, align 8, !tbaa !50
  %8 = call noundef i32 @_ZNK3ast8get_kindEv(ptr noundef nonnull align 4 dereferenceable(16) %7)
  %9 = icmp eq i32 %8, 0
  br i1 %9, label %10, label %16

10:                                               ; preds = %3
  %11 = load ptr, ptr %4, align 8, !tbaa !50
  %12 = call noundef ptr @_Z6to_appPK3ast(ptr noundef %11)
  %13 = load i32, ptr %5, align 4, !tbaa !67
  %14 = load i32, ptr %6, align 4, !tbaa !67
  %15 = call noundef zeroext i1 @_ZNK3app9is_app_ofEii(ptr noundef nonnull align 8 dereferenceable(32) %12, i32 noundef %13, i32 noundef %14)
  br label %16

16:                                               ; preds = %10, %3
  %17 = phi i1 [ false, %3 ], [ %15, %10 ]
  ret i1 %17
}

; Function Attrs: mustprogress uwtable
define linkonce_odr hidden void @_ZN6bufferIP4exprLb0ELj16EE6expandEv(ptr noundef nonnull align 8 dereferenceable(144) %0) #4 comdat align 2 {
  %2 = alloca ptr, align 8
  %3 = alloca i32, align 4
  %4 = alloca ptr, align 8
  %5 = alloca i32, align 4
  store ptr %0, ptr %2, align 8, !tbaa !120
  %6 = load ptr, ptr %2, align 8
  call void @llvm.lifetime.start.p0(i64 4, ptr %3) #3
  %7 = getelementptr inbounds nuw %class.buffer.34, ptr %6, i32 0, i32 2
  %8 = load i32, ptr %7, align 4, !tbaa !124
  %9 = shl i32 %8, 1
  store i32 %9, ptr %3, align 4, !tbaa !67
  call void @llvm.lifetime.start.p0(i64 8, ptr %4) #3
  %10 = load i32, ptr %3, align 4, !tbaa !67
  %11 = zext i32 %10 to i64
  %12 = mul i64 8, %11
  %13 = call noalias noundef ptr @_ZN6memory8allocateEm(i64 noundef %12)
  store ptr %13, ptr %4, align 8, !tbaa !56
  call void @llvm.lifetime.start.p0(i64 4, ptr %5) #3
  store i32 0, ptr %5, align 4, !tbaa !67
  br label %14

14:                                               ; preds = %31, %1
  %15 = load i32, ptr %5, align 4, !tbaa !67
  %16 = getelementptr inbounds nuw %class.buffer.34, ptr %6, i32 0, i32 1
  %17 = load i32, ptr %16, align 8, !tbaa !122
  %18 = icmp ult i32 %15, %17
  br i1 %18, label %20, label %19

19:                                               ; preds = %14
  call void @llvm.lifetime.end.p0(i64 4, ptr %5) #3
  br label %34

20:                                               ; preds = %14
  %21 = load ptr, ptr %4, align 8, !tbaa !56
  %22 = load i32, ptr %5, align 4, !tbaa !67
  %23 = zext i32 %22 to i64
  %24 = getelementptr inbounds nuw ptr, ptr %21, i64 %23
  %25 = getelementptr inbounds nuw %class.buffer.34, ptr %6, i32 0, i32 0
  %26 = load ptr, ptr %25, align 8, !tbaa !125
  %27 = load i32, ptr %5, align 4, !tbaa !67
  %28 = zext i32 %27 to i64
  %29 = getelementptr inbounds nuw ptr, ptr %26, i64 %28
  %30 = load ptr, ptr %29, align 8, !tbaa !50
  store ptr %30, ptr %24, align 8, !tbaa !50
  br label %31

31:                                               ; preds = %20
  %32 = load i32, ptr %5, align 4, !tbaa !67
  %33 = add i32 %32, 1
  store i32 %33, ptr %5, align 4, !tbaa !67
  br label %14, !llvm.loop !509

34:                                               ; preds = %19
  call void @_ZN6bufferIP4exprLb0ELj16EE11free_memoryEv(ptr noundef nonnull align 8 dereferenceable(144) %6)
  %35 = load ptr, ptr %4, align 8, !tbaa !56
  %36 = getelementptr inbounds nuw %class.buffer.34, ptr %6, i32 0, i32 0
  store ptr %35, ptr %36, align 8, !tbaa !125
  %37 = load i32, ptr %3, align 4, !tbaa !67
  %38 = getelementptr inbounds nuw %class.buffer.34, ptr %6, i32 0, i32 2
  store i32 %37, ptr %38, align 4, !tbaa !124
  call void @llvm.lifetime.end.p0(i64 8, ptr %4) #3
  call void @llvm.lifetime.end.p0(i64 4, ptr %3) #3
  ret void
}

; Function Attrs: mustprogress uwtable
define linkonce_odr hidden noundef zeroext i1 @_ZNK14bv_recognizers9is_bv_addEPK4expr(ptr noundef nonnull align 4 dereferenceable(4) %0, ptr noundef %1) #4 comdat align 2 {
  %3 = alloca ptr, align 8
  %4 = alloca ptr, align 8
  store ptr %0, ptr %3, align 8, !tbaa !51
  store ptr %1, ptr %4, align 8, !tbaa !50
  %5 = load ptr, ptr %3, align 8
  %6 = load ptr, ptr %4, align 8, !tbaa !50
  %7 = call noundef i32 @_ZNK14bv_recognizers7get_fidEv(ptr noundef nonnull align 4 dereferenceable(4) %5)
  %8 = call noundef zeroext i1 @_Z9is_app_ofPK4exprii(ptr noundef %6, i32 noundef %7, i32 noundef 4)
  ret i1 %8
}

; Function Attrs: mustprogress uwtable
define linkonce_odr hidden noundef zeroext i1 @_ZNK17arith_recognizers6is_addEPK4expr(ptr noundef nonnull align 1 dereferenceable(1) %0, ptr noundef %1) #4 comdat align 2 {
  %3 = alloca ptr, align 8
  %4 = alloca ptr, align 8
  store ptr %0, ptr %3, align 8, !tbaa !54
  store ptr %1, ptr %4, align 8, !tbaa !50
  %5 = load ptr, ptr %4, align 8, !tbaa !50
  %6 = call noundef zeroext i1 @_Z9is_app_ofPK4exprii(ptr noundef %5, i32 noundef 5, i32 noundef 6)
  ret i1 %6
}

; Function Attrs: mustprogress uwtable
define linkonce_odr hidden void @_ZN6bufferIP4exprLb0ELj16EE9push_backERKS1_(ptr noundef nonnull align 8 dereferenceable(144) %0, ptr noundef nonnull align 8 dereferenceable(8) %1) #4 comdat align 2 {
  %3 = alloca ptr, align 8
  %4 = alloca ptr, align 8
  store ptr %0, ptr %3, align 8, !tbaa !120
  store ptr %1, ptr %4, align 8, !tbaa !56
  %5 = load ptr, ptr %3, align 8
  %6 = getelementptr inbounds nuw %class.buffer.34, ptr %5, i32 0, i32 1
  %7 = load i32, ptr %6, align 8, !tbaa !122
  %8 = getelementptr inbounds nuw %class.buffer.34, ptr %5, i32 0, i32 2
  %9 = load i32, ptr %8, align 4, !tbaa !124
  %10 = icmp uge i32 %7, %9
  br i1 %10, label %11, label %12

11:                                               ; preds = %2
  call void @_ZN6bufferIP4exprLb0ELj16EE6expandEv(ptr noundef nonnull align 8 dereferenceable(144) %5)
  br label %12

12:                                               ; preds = %11, %2
  %13 = getelementptr inbounds nuw %class.buffer.34, ptr %5, i32 0, i32 0
  %14 = load ptr, ptr %13, align 8, !tbaa !125
  %15 = getelementptr inbounds nuw %class.buffer.34, ptr %5, i32 0, i32 1
  %16 = load i32, ptr %15, align 8, !tbaa !122
  %17 = zext i32 %16 to i64
  %18 = getelementptr inbounds nuw ptr, ptr %14, i64 %17
  %19 = load ptr, ptr %4, align 8, !tbaa !56
  %20 = load ptr, ptr %19, align 8, !tbaa !50
  store ptr %20, ptr %18, align 8, !tbaa !50
  %21 = getelementptr inbounds nuw %class.buffer.34, ptr %5, i32 0, i32 1
  %22 = load i32, ptr %21, align 8, !tbaa !122
  %23 = add i32 %22, 1
  store i32 %23, ptr %21, align 8, !tbaa !122
  ret void
}

; Function Attrs: mustprogress nounwind uwtable
define linkonce_odr hidden noundef ptr @_ZNK3app8get_argsEv(ptr noundef nonnull align 8 dereferenceable(32) %0) #7 comdat align 2 {
  %2 = alloca ptr, align 8
  store ptr %0, ptr %2, align 8, !tbaa !84
  %3 = load ptr, ptr %2, align 8
  %4 = getelementptr inbounds nuw %class.app, ptr %3, i32 0, i32 4
  %5 = getelementptr inbounds [0 x ptr], ptr %4, i64 0, i64 0
  ret ptr %5
}

; Function Attrs: mustprogress nounwind uwtable
define linkonce_odr hidden noundef i32 @_ZNK3app12get_num_argsEv(ptr noundef nonnull align 8 dereferenceable(32) %0) #7 comdat align 2 {
  %2 = alloca ptr, align 8
  store ptr %0, ptr %2, align 8, !tbaa !84
  %3 = load ptr, ptr %2, align 8
  %4 = getelementptr inbounds nuw %class.app, ptr %3, i32 0, i32 2
  %5 = load i32, ptr %4, align 8, !tbaa !92
  ret i32 %5
}

; Function Attrs: inlinehint mustprogress nounwind uwtable
define linkonce_odr hidden noundef ptr @_Z6to_appP3ast(ptr noundef %0) #8 comdat {
  %2 = alloca ptr, align 8
  store ptr %0, ptr %2, align 8, !tbaa !82
  %3 = load ptr, ptr %2, align 8, !tbaa !82
  ret ptr %3
}

; Function Attrs: mustprogress uwtable
define hidden noundef zeroext i1 @_ZNK10macro_util6is_addEP4expr(ptr noundef nonnull align 8 dereferenceable(320) %0, ptr noundef %1) #4 align 2 {
  %3 = alloca ptr, align 8
  %4 = alloca ptr, align 8
  store ptr %0, ptr %3, align 8, !tbaa !3
  store ptr %1, ptr %4, align 8, !tbaa !50
  %5 = load ptr, ptr %3, align 8
  %6 = getelementptr inbounds nuw %class.macro_util, ptr %5, i32 0, i32 2
  %7 = load ptr, ptr %4, align 8, !tbaa !50
  %8 = call noundef zeroext i1 @_ZNK17arith_recognizers6is_addEPK4expr(ptr noundef nonnull align 1 dereferenceable(1) %6, ptr noundef %7)
  br i1 %8, label %13, label %9

9:                                                ; preds = %2
  %10 = getelementptr inbounds nuw %class.macro_util, ptr %5, i32 0, i32 1
  %11 = load ptr, ptr %4, align 8, !tbaa !50
  %12 = call noundef zeroext i1 @_ZNK14bv_recognizers9is_bv_addEPK4expr(ptr noundef nonnull align 4 dereferenceable(4) %10, ptr noundef %11)
  br label %13

13:                                               ; preds = %9, %2
  %14 = phi i1 [ true, %2 ], [ %12, %9 ]
  ret i1 %14
}

; Function Attrs: mustprogress nounwind uwtable
define linkonce_odr hidden void @_ZN6bufferIP4exprLb0ELj16EE5resetEv(ptr noundef nonnull align 8 dereferenceable(144) %0) #7 comdat align 2 {
  %2 = alloca ptr, align 8
  store ptr %0, ptr %2, align 8, !tbaa !120
  %3 = load ptr, ptr %2, align 8
  %4 = getelementptr inbounds nuw %class.buffer.34, ptr %3, i32 0, i32 1
  store i32 0, ptr %4, align 8, !tbaa !122
  ret void
}

; Function Attrs: mustprogress uwtable
define hidden void @_ZN10macro_util17collect_poly_argsEP4exprS1_R10ptr_bufferIS0_Lj16EE(ptr noundef nonnull align 8 dereferenceable(320) %0, ptr noundef %1, ptr noundef %2, ptr noundef nonnull align 8 dereferenceable(144) %3) #4 align 2 {
  %5 = alloca ptr, align 8
  %6 = alloca ptr, align 8
  %7 = alloca ptr, align 8
  %8 = alloca ptr, align 8
  %9 = alloca i32, align 4
  %10 = alloca ptr, align 8
  %11 = alloca i32, align 4
  %12 = alloca ptr, align 8
  store ptr %0, ptr %5, align 8, !tbaa !3
  store ptr %1, ptr %6, align 8, !tbaa !50
  store ptr %2, ptr %7, align 8, !tbaa !50
  store ptr %3, ptr %8, align 8, !tbaa !118
  %13 = load ptr, ptr %5, align 8
  %14 = load ptr, ptr %8, align 8, !tbaa !118
  call void @_ZN6bufferIP4exprLb0ELj16EE5resetEv(ptr noundef nonnull align 8 dereferenceable(144) %14)
  call void @llvm.lifetime.start.p0(i64 4, ptr %9) #3
  call void @llvm.lifetime.start.p0(i64 8, ptr %10) #3
  %15 = load ptr, ptr %6, align 8, !tbaa !50
  %16 = call noundef zeroext i1 @_ZNK10macro_util6is_addEP4expr(ptr noundef nonnull align 8 dereferenceable(320) %13, ptr noundef %15)
  br i1 %16, label %17, label %24

17:                                               ; preds = %4
  %18 = load ptr, ptr %6, align 8, !tbaa !50
  %19 = call noundef ptr @_Z6to_appP3ast(ptr noundef %18)
  %20 = call noundef i32 @_ZNK3app12get_num_argsEv(ptr noundef nonnull align 8 dereferenceable(32) %19)
  store i32 %20, ptr %9, align 4, !tbaa !67
  %21 = load ptr, ptr %6, align 8, !tbaa !50
  %22 = call noundef ptr @_Z6to_appP3ast(ptr noundef %21)
  %23 = call noundef ptr @_ZNK3app8get_argsEv(ptr noundef nonnull align 8 dereferenceable(32) %22)
  store ptr %23, ptr %10, align 8, !tbaa !56
  br label %25

24:                                               ; preds = %4
  store i32 1, ptr %9, align 4, !tbaa !67
  store ptr %6, ptr %10, align 8, !tbaa !56
  br label %25

25:                                               ; preds = %24, %17
  call void @llvm.lifetime.start.p0(i64 4, ptr %11) #3
  store i32 0, ptr %11, align 4, !tbaa !67
  br label %26

26:                                               ; preds = %43, %25
  %27 = load i32, ptr %11, align 4, !tbaa !67
  %28 = load i32, ptr %9, align 4, !tbaa !67
  %29 = icmp ult i32 %27, %28
  br i1 %29, label %31, label %30

30:                                               ; preds = %26
  call void @llvm.lifetime.end.p0(i64 4, ptr %11) #3
  br label %46

31:                                               ; preds = %26
  call void @llvm.lifetime.start.p0(i64 8, ptr %12) #3
  %32 = load ptr, ptr %10, align 8, !tbaa !56
  %33 = load i32, ptr %11, align 4, !tbaa !67
  %34 = zext i32 %33 to i64
  %35 = getelementptr inbounds nuw ptr, ptr %32, i64 %34
  %36 = load ptr, ptr %35, align 8, !tbaa !50
  store ptr %36, ptr %12, align 8, !tbaa !50
  %37 = load ptr, ptr %12, align 8, !tbaa !50
  %38 = load ptr, ptr %7, align 8, !tbaa !50
  %39 = icmp ne ptr %37, %38
  br i1 %39, label %40, label %42

40:                                               ; preds = %31
  %41 = load ptr, ptr %8, align 8, !tbaa !118
  call void @_ZN6bufferIP4exprLb0ELj16EE9push_backERKS1_(ptr noundef nonnull align 8 dereferenceable(144) %41, ptr noundef nonnull align 8 dereferenceable(8) %12)
  br label %42

42:                                               ; preds = %40, %31
  call void @llvm.lifetime.end.p0(i64 8, ptr %12) #3
  br label %43

43:                                               ; preds = %42
  %44 = load i32, ptr %11, align 4, !tbaa !67
  %45 = add i32 %44, 1
  store i32 %45, ptr %11, align 4, !tbaa !67
  br label %26, !llvm.loop !307

46:                                               ; preds = %30
  call void @llvm.lifetime.end.p0(i64 8, ptr %10) #3
  call void @llvm.lifetime.end.p0(i64 4, ptr %9) #3
  ret void
}