; Function Attrs: mustprogress uwtable
define hidden void @_ZN10macro_util17collect_poly_argsEP4exprS1_R10ptr_bufferIS0_Lj16EE(ptr noundef nonnull readonly align 8 captures(none) dereferenceable(320) %0, ptr noundef %1, ptr noundef readnone captures(address) %2, ptr noundef nonnull align 8 captures(address) dereferenceable(144) initializes((8, 12)) %3) local_unnamed_addr #3 align 2 {
  %5 = alloca ptr, align 8
  store ptr %1, ptr %5, align 8, !tbaa !73
  %6 = getelementptr inbounds nuw i8, ptr %3, i64 8
  store i32 0, ptr %6, align 8, !tbaa !115
  %7 = getelementptr inbounds nuw i8, ptr %1, i64 4
  %8 = load i32, ptr %7, align 4
  %9 = and i32 %8, 65535
  %10 = icmp eq i32 %9, 0
  br i1 %10, label %11, label %.lr.ph

11:                                               ; preds = %4
  %12 = getelementptr inbounds nuw i8, ptr %1, i64 16
  %13 = load ptr, ptr %12, align 8, !tbaa !50
  %14 = getelementptr inbounds nuw i8, ptr %13, i64 24
  %15 = load ptr, ptr %14, align 8, !tbaa !55
  %.not.i.i.i.i.i = icmp eq ptr %15, null
  br i1 %.not.i.i.i.i.i, label %.lr.ph, label %_ZNK17arith_recognizers6is_addEPK4expr.exit.i

_ZNK17arith_recognizers6is_addEPK4expr.exit.i:    ; preds = %11
  %16 = load i32, ptr %15, align 8, !tbaa !60
  %17 = icmp eq i32 %16, 5
  %18 = getelementptr inbounds nuw i8, ptr %15, i64 4
  %19 = load i32, ptr %18, align 4
  %20 = icmp eq i32 %19, 6
  %21 = select i1 %17, i1 %20, i1 false
  br i1 %21, label %_ZNK10macro_util6is_addEP4expr.exit.thread, label %_ZNK10macro_util6is_addEP4expr.exit

_ZNK10macro_util6is_addEP4expr.exit:              ; preds = %_ZNK17arith_recognizers6is_addEPK4expr.exit.i
  %.in.i = getelementptr inbounds nuw i8, ptr %0, i64 8
  %22 = load i32, ptr %.in.i, align 8, !tbaa !64
  %23 = icmp eq i32 %16, %22
  %24 = icmp eq i32 %19, 4
  %25 = select i1 %23, i1 %24, i1 false
  br i1 %25, label %_ZNK10macro_util6is_addEP4expr.exit.thread, label %.lr.ph

_ZNK10macro_util6is_addEP4expr.exit.thread:       ; preds = %_ZNK10macro_util6is_addEP4expr.exit, %_ZNK17arith_recognizers6is_addEPK4expr.exit.i
  %26 = getelementptr inbounds nuw i8, ptr %1, i64 24
  %27 = load i32, ptr %26, align 8, !tbaa !79
  %28 = getelementptr inbounds nuw i8, ptr %1, i64 32
  %.not12 = icmp eq i32 %27, 0
  br i1 %.not12, label %._crit_edge, label %.lr.ph

.lr.ph:                                           ; preds = %11, %4, %_ZNK10macro_util6is_addEP4expr.exit, %_ZNK10macro_util6is_addEP4expr.exit.thread
  %.0818 = phi ptr [ %28, %_ZNK10macro_util6is_addEP4expr.exit.thread ], [ %5, %_ZNK10macro_util6is_addEP4expr.exit ], [ %5, %4 ], [ %5, %11 ]
  %.0917 = phi i32 [ %27, %_ZNK10macro_util6is_addEP4expr.exit.thread ], [ 1, %_ZNK10macro_util6is_addEP4expr.exit ], [ 1, %4 ], [ 1, %11 ]
  %29 = getelementptr inbounds nuw i8, ptr %3, i64 12
  %30 = getelementptr inbounds nuw i8, ptr %3, i64 16
  %wide.trip.count = zext i32 %.0917 to i64
  br label %31

._crit_edge:                                      ; preds = %54, %_ZNK10macro_util6is_addEP4expr.exit.thread
  ret void

31:                                               ; preds = %.lr.ph, %54
  %32 = phi i32 [ 0, %.lr.ph ], [ %55, %54 ]
  %indvars.iv = phi i64 [ 0, %.lr.ph ], [ %indvars.iv.next, %54 ]
  %33 = getelementptr inbounds nuw ptr, ptr %.0818, i64 %indvars.iv
  %34 = load ptr, ptr %33, align 8, !tbaa !73
  %.not = icmp eq ptr %34, %2
  br i1 %.not, label %54, label %35

35:                                               ; preds = %31
  %36 = load i32, ptr %29, align 4, !tbaa !116
  %.not.i = icmp ult i32 %32, %36
  br i1 %.not.i, label %._crit_edge.i, label %37

._crit_edge.i:                                    ; preds = %35
  %.pre.i = load ptr, ptr %3, align 8, !tbaa !111
  br label %_ZN6bufferIP4exprLb0ELj16EE9push_backERKS1_.exit

37:                                               ; preds = %35
  %38 = shl i32 %36, 1
  %39 = zext i32 %38 to i64
  %40 = shl nuw nsw i64 %39, 3
  %41 = tail call noalias noundef ptr @_ZN6memory8allocateEm(i64 noundef %40)
  %42 = load i32, ptr %6, align 8, !tbaa !115
  %.not.i.i = icmp eq i32 %42, 0
  %.pre.i.i = load ptr, ptr %3, align 8, !tbaa !111
  br i1 %.not.i.i, label %._crit_edge.i.i, label %.lr.ph.i.i

.lr.ph.i.i:                                       ; preds = %37
  %wide.trip.count.i.i = zext i32 %42 to i64
  br label %45

._crit_edge.i.i:                                  ; preds = %45, %37
  %.not.i.i.i = icmp eq ptr %.pre.i.i, %30
  %43 = icmp eq ptr %.pre.i.i, null
  %or.cond.i.i.i = or i1 %.not.i.i.i, %43
  br i1 %or.cond.i.i.i, label %_ZN6bufferIP4exprLb0ELj16EE6expandEv.exit.i, label %44

44:                                               ; preds = %._crit_edge.i.i
  tail call void @_ZN6memory10deallocateEPv(ptr noundef nonnull %.pre.i.i)
  %.pre2.pre.i = load i32, ptr %6, align 8, !tbaa !115
  br label %_ZN6bufferIP4exprLb0ELj16EE6expandEv.exit.i

45:                                               ; preds = %45, %.lr.ph.i.i
  %indvars.iv.i.i = phi i64 [ 0, %.lr.ph.i.i ], [ %indvars.iv.next.i.i, %45 ]
  %46 = getelementptr inbounds nuw ptr, ptr %41, i64 %indvars.iv.i.i
  %47 = getelementptr inbounds nuw ptr, ptr %.pre.i.i, i64 %indvars.iv.i.i
  %48 = load ptr, ptr %47, align 8, !tbaa !73
  store ptr %48, ptr %46, align 8, !tbaa !73
  %indvars.iv.next.i.i = add nuw nsw i64 %indvars.iv.i.i, 1
  %exitcond.not.i.i = icmp eq i64 %indvars.iv.next.i.i, %wide.trip.count.i.i
  br i1 %exitcond.not.i.i, label %._crit_edge.i.i, label %45, !llvm.loop !117

_ZN6bufferIP4exprLb0ELj16EE6expandEv.exit.i:      ; preds = %44, %._crit_edge.i.i
  %.pre2.i = phi i32 [ %42, %._crit_edge.i.i ], [ %.pre2.pre.i, %44 ]
  store ptr %41, ptr %3, align 8, !tbaa !111
  store i32 %38, ptr %29, align 4, !tbaa !116
  br label %_ZN6bufferIP4exprLb0ELj16EE9push_backERKS1_.exit

_ZN6bufferIP4exprLb0ELj16EE9push_backERKS1_.exit: ; preds = %._crit_edge.i, %_ZN6bufferIP4exprLb0ELj16EE6expandEv.exit.i
  %49 = phi i32 [ %32, %._crit_edge.i ], [ %.pre2.i, %_ZN6bufferIP4exprLb0ELj16EE6expandEv.exit.i ]
  %50 = phi ptr [ %.pre.i, %._crit_edge.i ], [ %41, %_ZN6bufferIP4exprLb0ELj16EE6expandEv.exit.i ]
  %51 = zext i32 %49 to i64
  %52 = getelementptr inbounds nuw ptr, ptr %50, i64 %51
  store ptr %34, ptr %52, align 8, !tbaa !73
  %53 = add i32 %49, 1
  store i32 %53, ptr %6, align 8, !tbaa !115
  br label %54

54:                                               ; preds = %_ZN6bufferIP4exprLb0ELj16EE9push_backERKS1_.exit, %31
  %55 = phi i32 [ %53, %_ZN6bufferIP4exprLb0ELj16EE9push_backERKS1_.exit ], [ %32, %31 ]
  %indvars.iv.next = add nuw nsw i64 %indvars.iv, 1
  %exitcond.not = icmp eq i64 %indvars.iv.next, %wide.trip.count
  br i1 %exitcond.not, label %._crit_edge, label %31, !llvm.loop !283
}